target datalayout = "e-m:e-p270:32:32-p271:32:32-p272:64:64-i64:64-i128:128-f80:128-n8:16:32:64-S128"
target triple = "x86_64-pc-linux-gnu"

%struct.mbedtls_sha256_context = type { [2 x i32], [8 x i32], [64 x i8], i32 }

; Function Attrs: mustprogress uwtable
define hidden i32 @mbedtls_sha256_update(ptr noundef %0, ptr noundef %1, i64 noundef %2) #2 {
  %4 = alloca i32, align 4
  %5 = alloca ptr, align 8
  %6 = alloca ptr, align 8
  %7 = alloca i64, align 8
  %8 = alloca i32, align 4
  %9 = alloca i64, align 8
  %10 = alloca i32, align 4
  %11 = alloca i32, align 4
  store ptr %0, ptr %5, align 8, !tbaa !3
  store ptr %1, ptr %6, align 8, !tbaa !14
  store i64 %2, ptr %7, align 8, !tbaa !25
  call void @llvm.lifetime.start.p0(i64 4, ptr %8) #6
  store i32 -110, ptr %8, align 4, !tbaa !10
  call void @llvm.lifetime.start.p0(i64 8, ptr %9) #6
  call void @llvm.lifetime.start.p0(i64 4, ptr %10) #6
  br label %12

12:                                               ; preds = %3
  br label %13

13:                                               ; preds = %12
  br label %14

14:                                               ; preds = %13
  br label %15

15:                                               ; preds = %14
  br label %16

16:                                               ; preds = %15
  br label %17

17:                                               ; preds = %16
  %18 = load i64, ptr %7, align 8, !tbaa !25
  %19 = icmp eq i64 %18, 0
  br i1 %19, label %20, label %21

20:                                               ; preds = %17
  store i32 0, ptr %4, align 4
  store i32 1, ptr %11, align 4
  br label %115

21:                                               ; preds = %17
  %22 = load ptr, ptr %5, align 8, !tbaa !3
  %23 = getelementptr inbounds nuw %struct.mbedtls_sha256_context, ptr %22, i32 0, i32 0
  %24 = getelementptr inbounds [2 x i32], ptr %23, i64 0, i64 0
  %25 = load i32, ptr %24, align 4, !tbaa !10
  %26 = and i32 %25, 63
  store i32 %26, ptr %10, align 4, !tbaa !10
  %27 = load i32, ptr %10, align 4, !tbaa !10
  %28 = sub i32 64, %27
  %29 = zext i32 %28 to i64
  store i64 %29, ptr %9, align 8, !tbaa !25
  %30 = load i64, ptr %7, align 8, !tbaa !25
  %31 = trunc i64 %30 to i32
  %32 = load ptr, ptr %5, align 8, !tbaa !3
  %33 = getelementptr inbounds nuw %struct.mbedtls_sha256_context, ptr %32, i32 0, i32 0
  %34 = getelementptr inbounds [2 x i32], ptr %33, i64 0, i64 0
  %35 = load i32, ptr %34, align 4, !tbaa !10
  %36 = add i32 %35, %31
  store i32 %36, ptr %34, align 4, !tbaa !10
  %37 = load ptr, ptr %5, align 8, !tbaa !3
  %38 = getelementptr inbounds nuw %struct.mbedtls_sha256_context, ptr %37, i32 0, i32 0
  %39 = getelementptr inbounds [2 x i32], ptr %38, i64 0, i64 0
  %40 = load i32, ptr %39, align 4, !tbaa !10
  %41 = and i32 %40, -1
  store i32 %41, ptr %39, align 4, !tbaa !10
  %42 = load ptr, ptr %5, align 8, !tbaa !3
  %43 = getelementptr inbounds nuw %struct.mbedtls_sha256_context, ptr %42, i32 0, i32 0
  %44 = getelementptr inbounds [2 x i32], ptr %43, i64 0, i64 0
  %45 = load i32, ptr %44, align 4, !tbaa !10
  %46 = load i64, ptr %7, align 8, !tbaa !25
  %47 = trunc i64 %46 to i32
  %48 = icmp ult i32 %45, %47
  br i1 %48, label %49, label %55

49:                                               ; preds = %21
  %50 = load ptr, ptr %5, align 8, !tbaa !3
  %51 = getelementptr inbounds nuw %struct.mbedtls_sha256_context, ptr %50, i32 0, i32 0
  %52 = getelementptr inbounds [2 x i32], ptr %51, i64 0, i64 1
  %53 = load i32, ptr %52, align 4, !tbaa !10
  %54 = add i32 %53, 1
  store i32 %54, ptr %52, align 4, !tbaa !10
  br label %55

55:                                               ; preds = %49, %21
  %56 = load i32, ptr %10, align 4, !tbaa !10
  %57 = icmp ne i32 %56, 0
  br i1 %57, label %58, label %86

58:                                               ; preds = %55
  %59 = load i64, ptr %7, align 8, !tbaa !25
  %60 = load i64, ptr %9, align 8, !tbaa !25
  %61 = icmp uge i64 %59, %60
  br i1 %61, label %62, label %86

62:                                               ; preds = %58
  %63 = load ptr, ptr %5, align 8, !tbaa !3
  %64 = getelementptr inbounds nuw %struct.mbedtls_sha256_context, ptr %63, i32 0, i32 2
  %65 = getelementptr inbounds [64 x i8], ptr %64, i64 0, i64 0
  %66 = load i32, ptr %10, align 4, !tbaa !10
  %67 = zext i32 %66 to i64
  %68 = getelementptr inbounds nuw i8, ptr %65, i64 %67
  %69 = load ptr, ptr %6, align 8, !tbaa !14
  %70 = load i64, ptr %9, align 8, !tbaa !25
  call void @llvm.memcpy.p0.p0.i64(ptr align 1 %68, ptr align 1 %69, i64 %70, i1 false)
  %71 = load ptr, ptr %5, align 8, !tbaa !3
  %72 = load ptr, ptr %5, align 8, !tbaa !3
  %73 = getelementptr inbounds nuw %struct.mbedtls_sha256_context, ptr %72, i32 0, i32 2
  %74 = getelementptr inbounds [64 x i8], ptr %73, i64 0, i64 0
  %75 = call i32 @mbedtls_internal_sha256_process(ptr noundef %71, ptr noundef %74)
  store i32 %75, ptr %8, align 4, !tbaa !10
  %76 = icmp ne i32 %75, 0
  br i1 %76, label %77, label %79

77:                                               ; preds = %62
  %78 = load i32, ptr %8, align 4, !tbaa !10
  store i32 %78, ptr %4, align 4
  store i32 1, ptr %11, align 4
  br label %115

79:                                               ; preds = %62
  %80 = load i64, ptr %9, align 8, !tbaa !25
  %81 = load ptr, ptr %6, align 8, !tbaa !14
  %82 = getelementptr inbounds nuw i8, ptr %81, i64 %80
  store ptr %82, ptr %6, align 8, !tbaa !14
  %83 = load i64, ptr %9, align 8, !tbaa !25
  %84 = load i64, ptr %7, align 8, !tbaa !25
  %85 = sub i64 %84, %83
  store i64 %85, ptr %7, align 8, !tbaa !25
  store i32 0, ptr %10, align 4, !tbaa !10
  br label %86

86:                                               ; preds = %79, %58, %55
  br label %87

87:                                               ; preds = %97, %86
  %88 = load i64, ptr %7, align 8, !tbaa !25
  %89 = icmp uge i64 %88, 64
  br i1 %89, label %90, label %102

90:                                               ; preds = %87
  %91 = load ptr, ptr %5, align 8, !tbaa !3
  %92 = load ptr, ptr %6, align 8, !tbaa !14
  %93 = call i32 @mbedtls_internal_sha256_process(ptr noundef %91, ptr noundef %92)
  store i32 %93, ptr %8, align 4, !tbaa !10
  %94 = icmp ne i32 %93, 0
  br i1 %94, label %95, label %97

95:                                               ; preds = %90
  %96 = load i32, ptr %8, align 4, !tbaa !10
  store i32 %96, ptr %4, align 4
  store i32 1, ptr %11, align 4
  br label %115

97:                                               ; preds = %90
  %98 = load ptr, ptr %6, align 8, !tbaa !14
  %99 = getelementptr inbounds i8, ptr %98, i64 64
  store ptr %99, ptr %6, align 8, !tbaa !14
  %100 = load i64, ptr %7, align 8, !tbaa !25
  %101 = sub i64 %100, 64
  store i64 %101, ptr %7, align 8, !tbaa !25
  br label %87, !llvm.loop !27

102:                                              ; preds = %87
  %103 = load i64, ptr %7, align 8, !tbaa !25
  %104 = icmp ugt i64 %103, 0
  br i1 %104, label %105, label %114

105:                                              ; preds = %102
  %106 = load ptr, ptr %5, align 8, !tbaa !3
  %107 = getelementptr inbounds nuw %struct.mbedtls_sha256_context, ptr %106, i32 0, i32 2
  %108 = getelementptr inbounds [64 x i8], ptr %107, i64 0, i64 0
  %109 = load i32, ptr %10, align 4, !tbaa !10
  %110 = zext i32 %109 to i64
  %111 = getelementptr inbounds nuw i8, ptr %108, i64 %110
  %112 = load ptr, ptr %6, align 8, !tbaa !14
  %113 = load i64, ptr %7, align 8, !tbaa !25
  call void @llvm.memcpy.p0.p0.i64(ptr align 1 %111, ptr align 1 %112, i64 %113, i1 false)
  br label %114

114:                                              ; preds = %105, %102
  store i32 0, ptr %4, align 4
  store i32 1, ptr %11, align 4
  br label %115

115:                                              ; preds = %114, %95, %77, %20
  call void @llvm.lifetime.end.p0(i64 4, ptr %10) #6
  call void @llvm.lifetime.end.p0(i64 8, ptr %9) #6
  call void @llvm.lifetime.end.p0(i64 4, ptr %8) #6
  %116 = load i32, ptr %4, align 4
  ret i32 %116
}